target datalayout = "e-m:e-p270:32:32-p271:32:32-p272:64:64-i64:64-i128:128-f80:128-n8:16:32:64-S128"
target triple = "x86_64-pc-linux-gnu"

%struct._zend_ssa = type { %struct._zend_cfg, i32, i32, ptr, ptr, ptr, ptr }
%struct._zend_cfg = type { i32, i32, ptr, ptr, ptr, i32 }
%struct._zend_ssa_var_info = type { i32, i8, %struct._zend_ssa_range, ptr }
%struct._zend_ssa_range = type { i64, i64, i8, i8 }
%struct._zend_op = type { ptr, %union._znode_op, %union._znode_op, %union._znode_op, i32, i32, i8, i8, i8, i8 }
%union._znode_op = type { i32 }
%struct._zend_ssa_op = type { i32, i32, i32, i32, i32, i32, i32, i32, i32 }
%struct._zend_ssa_var = type { i32, i32, i32, i32, ptr, ptr, ptr, i8 }

; Function Attrs: nounwind uwtable
define internal zeroext i1 @opline_supports_assign_contraction(ptr noundef %0, ptr noundef %1, ptr noundef %2, i32 noundef %3, i32 noundef %4) #0 {
  %6 = alloca i1, align 1
  %7 = alloca ptr, align 8
  %8 = alloca ptr, align 8
  %9 = alloca ptr, align 8
  %10 = alloca i32, align 4
  %11 = alloca i32, align 4
  %12 = alloca i32, align 4
  %13 = alloca i32, align 4
  store ptr %0, ptr %7, align 8, !tbaa !4
  store ptr %1, ptr %8, align 8, !tbaa !11
  store ptr %2, ptr %9, align 8, !tbaa !69
  store i32 %3, ptr %10, align 4, !tbaa !42
  store i32 %4, ptr %11, align 4, !tbaa !42
  %14 = load ptr, ptr %9, align 8, !tbaa !69
  %15 = getelementptr inbounds nuw %struct._zend_op, ptr %14, i32 0, i32 6
  %16 = load i8, ptr %15, align 4, !tbaa !58
  %17 = zext i8 %16 to i32
  %18 = icmp eq i32 %17, 68
  br i1 %18, label %19, label %20

19:                                               ; preds = %5
  store i1 false, ptr %6, align 1
  br label %261

20:                                               ; preds = %5
  %21 = load ptr, ptr %9, align 8, !tbaa !69
  %22 = getelementptr inbounds nuw %struct._zend_op, ptr %21, i32 0, i32 6
  %23 = load i8, ptr %22, align 4, !tbaa !58
  %24 = zext i8 %23 to i32
  switch i32 %24, label %69 [
    i32 207, label %25
    i32 206, label %41
    i32 205, label %55
  ]

25:                                               ; preds = %20
  %26 = load ptr, ptr %9, align 8, !tbaa !69
  %27 = getelementptr inbounds %struct._zend_op, ptr %26, i64 1
  %28 = getelementptr inbounds nuw %struct._zend_op, ptr %27, i32 0, i32 7
  %29 = load i8, ptr %28, align 1, !tbaa !64
  %30 = zext i8 %29 to i32
  %31 = icmp eq i32 %30, 8
  br i1 %31, label %32, label %40

32:                                               ; preds = %25
  %33 = load ptr, ptr %9, align 8, !tbaa !69
  %34 = getelementptr inbounds %struct._zend_op, ptr %33, i64 1
  %35 = getelementptr inbounds nuw %struct._zend_op, ptr %34, i32 0, i32 1
  %36 = load i32, ptr %35, align 8, !tbaa !61
  %37 = load i32, ptr %11, align 4, !tbaa !42
  %38 = icmp eq i32 %36, %37
  br i1 %38, label %39, label %40

39:                                               ; preds = %32
  store i1 false, ptr %6, align 1
  br label %261

40:                                               ; preds = %32, %25
  br label %41

41:                                               ; preds = %20, %40
  %42 = load ptr, ptr %9, align 8, !tbaa !69
  %43 = getelementptr inbounds nuw %struct._zend_op, ptr %42, i32 0, i32 8
  %44 = load i8, ptr %43, align 2, !tbaa !91
  %45 = zext i8 %44 to i32
  %46 = icmp eq i32 %45, 8
  br i1 %46, label %47, label %54

47:                                               ; preds = %41
  %48 = load ptr, ptr %9, align 8, !tbaa !69
  %49 = getelementptr inbounds nuw %struct._zend_op, ptr %48, i32 0, i32 2
  %50 = load i32, ptr %49, align 4, !tbaa !61
  %51 = load i32, ptr %11, align 4, !tbaa !42
  %52 = icmp eq i32 %50, %51
  br i1 %52, label %53, label %54

53:                                               ; preds = %47
  store i1 false, ptr %6, align 1
  br label %261

54:                                               ; preds = %47, %41
  br label %55

55:                                               ; preds = %20, %54
  %56 = load ptr, ptr %9, align 8, !tbaa !69
  %57 = getelementptr inbounds nuw %struct._zend_op, ptr %56, i32 0, i32 7
  %58 = load i8, ptr %57, align 1, !tbaa !64
  %59 = zext i8 %58 to i32
  %60 = icmp eq i32 %59, 8
  br i1 %60, label %61, label %68

61:                                               ; preds = %55
  %62 = load ptr, ptr %9, align 8, !tbaa !69
  %63 = getelementptr inbounds nuw %struct._zend_op, ptr %62, i32 0, i32 1
  %64 = load i32, ptr %63, align 8, !tbaa !61
  %65 = load i32, ptr %11, align 4, !tbaa !42
  %66 = icmp eq i32 %64, %65
  br i1 %66, label %67, label %68

67:                                               ; preds = %61
  store i1 false, ptr %6, align 1
  br label %261

68:                                               ; preds = %61, %55
  store i1 true, ptr %6, align 1
  br label %261

69:                                               ; preds = %20
  %70 = load ptr, ptr %9, align 8, !tbaa !69
  %71 = getelementptr inbounds nuw %struct._zend_op, ptr %70, i32 0, i32 6
  %72 = load i8, ptr %71, align 4, !tbaa !58
  %73 = zext i8 %72 to i32
  %74 = icmp eq i32 %73, 129
  br i1 %74, label %93, label %75

75:                                               ; preds = %69
  %76 = load ptr, ptr %9, align 8, !tbaa !69
  %77 = getelementptr inbounds nuw %struct._zend_op, ptr %76, i32 0, i32 6
  %78 = load i8, ptr %77, align 4, !tbaa !58
  %79 = zext i8 %78 to i32
  %80 = icmp eq i32 %79, 130
  br i1 %80, label %93, label %81

81:                                               ; preds = %75
  %82 = load ptr, ptr %9, align 8, !tbaa !69
  %83 = getelementptr inbounds nuw %struct._zend_op, ptr %82, i32 0, i32 6
  %84 = load i8, ptr %83, align 4, !tbaa !58
  %85 = zext i8 %84 to i32
  %86 = icmp eq i32 %85, 60
  br i1 %86, label %93, label %87

87:                                               ; preds = %81
  %88 = load ptr, ptr %9, align 8, !tbaa !69
  %89 = getelementptr inbounds nuw %struct._zend_op, ptr %88, i32 0, i32 6
  %90 = load i8, ptr %89, align 4, !tbaa !58
  %91 = zext i8 %90 to i32
  %92 = icmp eq i32 %91, 131
  br i1 %92, label %93, label %109

93:                                               ; preds = %87, %81, %75, %69
  call void @llvm.lifetime.start.p0(i64 4, ptr %12) #13
  %94 = load ptr, ptr %8, align 8, !tbaa !11
  %95 = getelementptr inbounds nuw %struct._zend_ssa, ptr %94, i32 0, i32 6
  %96 = load ptr, ptr %95, align 8, !tbaa !103
  %97 = load i32, ptr %10, align 4, !tbaa !42
  %98 = sext i32 %97 to i64
  %99 = getelementptr inbounds %struct._zend_ssa_var_info, ptr %96, i64 %98
  %100 = getelementptr inbounds nuw %struct._zend_ssa_var_info, ptr %99, i32 0, i32 0
  %101 = load i32, ptr %100, align 8, !tbaa !109
  store i32 %101, ptr %12, align 4, !tbaa !42
  call void @llvm.lifetime.start.p0(i64 4, ptr %13) #13
  store i32 62, ptr %13, align 4, !tbaa !42
  %102 = load i32, ptr %12, align 4, !tbaa !42
  %103 = and i32 %102, 1022
  %104 = load i32, ptr %13, align 4, !tbaa !42
  %105 = xor i32 %104, -1
  %106 = and i32 %103, %105
  %107 = icmp ne i32 %106, 0
  %108 = xor i1 %107, true
  store i1 %108, ptr %6, align 1
  call void @llvm.lifetime.end.p0(i64 4, ptr %13) #13
  call void @llvm.lifetime.end.p0(i64 4, ptr %12) #13
  br label %261

109:                                              ; preds = %87
  %110 = load ptr, ptr %9, align 8, !tbaa !69
  %111 = getelementptr inbounds nuw %struct._zend_op, ptr %110, i32 0, i32 6
  %112 = load i8, ptr %111, align 4, !tbaa !58
  %113 = zext i8 %112 to i32
  %114 = icmp eq i32 %113, 36
  br i1 %114, label %121, label %115

115:                                              ; preds = %109
  %116 = load ptr, ptr %9, align 8, !tbaa !69
  %117 = getelementptr inbounds nuw %struct._zend_op, ptr %116, i32 0, i32 6
  %118 = load i8, ptr %117, align 4, !tbaa !58
  %119 = zext i8 %118 to i32
  %120 = icmp eq i32 %119, 37
  br i1 %120, label %121, label %135

121:                                              ; preds = %115, %109
  %122 = load ptr, ptr %9, align 8, !tbaa !69
  %123 = getelementptr inbounds nuw %struct._zend_op, ptr %122, i32 0, i32 7
  %124 = load i8, ptr %123, align 1, !tbaa !64
  %125 = zext i8 %124 to i32
  %126 = icmp ne i32 %125, 8
  br i1 %126, label %133, label %127

127:                                              ; preds = %121
  %128 = load ptr, ptr %9, align 8, !tbaa !69
  %129 = getelementptr inbounds nuw %struct._zend_op, ptr %128, i32 0, i32 1
  %130 = load i32, ptr %129, align 8, !tbaa !61
  %131 = load i32, ptr %11, align 4, !tbaa !42
  %132 = icmp ne i32 %130, %131
  br label %133

133:                                              ; preds = %127, %121
  %134 = phi i1 [ true, %121 ], [ %132, %127 ]
  store i1 %134, ptr %6, align 1
  br label %261

135:                                              ; preds = %115
  %136 = load ptr, ptr %9, align 8, !tbaa !69
  %137 = getelementptr inbounds nuw %struct._zend_op, ptr %136, i32 0, i32 6
  %138 = load i8, ptr %137, align 4, !tbaa !58
  %139 = zext i8 %138 to i32
  %140 = icmp eq i32 %139, 71
  br i1 %140, label %141, label %169

141:                                              ; preds = %135
  %142 = load ptr, ptr %9, align 8, !tbaa !69
  %143 = getelementptr inbounds nuw %struct._zend_op, ptr %142, i32 0, i32 7
  %144 = load i8, ptr %143, align 1, !tbaa !64
  %145 = zext i8 %144 to i32
  %146 = icmp ne i32 %145, 8
  br i1 %146, label %153, label %147

147:                                              ; preds = %141
  %148 = load ptr, ptr %9, align 8, !tbaa !69
  %149 = getelementptr inbounds nuw %struct._zend_op, ptr %148, i32 0, i32 1
  %150 = load i32, ptr %149, align 8, !tbaa !61
  %151 = load i32, ptr %11, align 4, !tbaa !42
  %152 = icmp ne i32 %150, %151
  br i1 %152, label %153, label %167

153:                                              ; preds = %147, %141
  %154 = load ptr, ptr %9, align 8, !tbaa !69
  %155 = getelementptr inbounds nuw %struct._zend_op, ptr %154, i32 0, i32 8
  %156 = load i8, ptr %155, align 2, !tbaa !91
  %157 = zext i8 %156 to i32
  %158 = icmp ne i32 %157, 8
  br i1 %158, label %165, label %159

159:                                              ; preds = %153
  %160 = load ptr, ptr %9, align 8, !tbaa !69
  %161 = getelementptr inbounds nuw %struct._zend_op, ptr %160, i32 0, i32 2
  %162 = load i32, ptr %161, align 4, !tbaa !61
  %163 = load i32, ptr %11, align 4, !tbaa !42
  %164 = icmp ne i32 %162, %163
  br label %165

165:                                              ; preds = %159, %153
  %166 = phi i1 [ true, %153 ], [ %164, %159 ]
  br label %167

167:                                              ; preds = %165, %147
  %168 = phi i1 [ false, %147 ], [ %166, %165 ]
  store i1 %168, ptr %6, align 1
  br label %261

169:                                              ; preds = %135
  %170 = load ptr, ptr %9, align 8, !tbaa !69
  %171 = getelementptr inbounds nuw %struct._zend_op, ptr %170, i32 0, i32 6
  %172 = load i8, ptr %171, align 4, !tbaa !58
  %173 = zext i8 %172 to i32
  %174 = icmp eq i32 %173, 51
  br i1 %174, label %175, label %199

175:                                              ; preds = %169
  %176 = load ptr, ptr %9, align 8, !tbaa !69
  %177 = getelementptr inbounds nuw %struct._zend_op, ptr %176, i32 0, i32 4
  %178 = load i32, ptr %177, align 4, !tbaa !63
  %179 = icmp eq i32 %178, 7
  br i1 %179, label %185, label %180

180:                                              ; preds = %175
  %181 = load ptr, ptr %9, align 8, !tbaa !69
  %182 = getelementptr inbounds nuw %struct._zend_op, ptr %181, i32 0, i32 4
  %183 = load i32, ptr %182, align 4, !tbaa !63
  %184 = icmp eq i32 %183, 8
  br i1 %184, label %185, label %199

185:                                              ; preds = %180, %175
  %186 = load ptr, ptr %9, align 8, !tbaa !69
  %187 = getelementptr inbounds nuw %struct._zend_op, ptr %186, i32 0, i32 7
  %188 = load i8, ptr %187, align 1, !tbaa !64
  %189 = zext i8 %188 to i32
  %190 = icmp ne i32 %189, 8
  br i1 %190, label %197, label %191

191:                                              ; preds = %185
  %192 = load ptr, ptr %9, align 8, !tbaa !69
  %193 = getelementptr inbounds nuw %struct._zend_op, ptr %192, i32 0, i32 1
  %194 = load i32, ptr %193, align 8, !tbaa !61
  %195 = load i32, ptr %11, align 4, !tbaa !42
  %196 = icmp ne i32 %194, %195
  br label %197

197:                                              ; preds = %191, %185
  %198 = phi i1 [ true, %185 ], [ %196, %191 ]
  store i1 %198, ptr %6, align 1
  br label %261

199:                                              ; preds = %180, %169
  %200 = load ptr, ptr %9, align 8, !tbaa !69
  %201 = getelementptr inbounds nuw %struct._zend_op, ptr %200, i32 0, i32 6
  %202 = load i8, ptr %201, align 4, !tbaa !58
  %203 = zext i8 %202 to i32
  %204 = icmp eq i32 %203, 26
  br i1 %204, label %229, label %205

205:                                              ; preds = %199
  %206 = load ptr, ptr %9, align 8, !tbaa !69
  %207 = getelementptr inbounds nuw %struct._zend_op, ptr %206, i32 0, i32 6
  %208 = load i8, ptr %207, align 4, !tbaa !58
  %209 = zext i8 %208 to i32
  %210 = icmp eq i32 %209, 24
  br i1 %210, label %229, label %211

211:                                              ; preds = %205
  %212 = load ptr, ptr %9, align 8, !tbaa !69
  %213 = getelementptr inbounds nuw %struct._zend_op, ptr %212, i32 0, i32 6
  %214 = load i8, ptr %213, align 4, !tbaa !58
  %215 = zext i8 %214 to i32
  %216 = icmp eq i32 %215, 23
  br i1 %216, label %229, label %217

217:                                              ; preds = %211
  %218 = load ptr, ptr %9, align 8, !tbaa !69
  %219 = getelementptr inbounds nuw %struct._zend_op, ptr %218, i32 0, i32 6
  %220 = load i8, ptr %219, align 4, !tbaa !58
  %221 = zext i8 %220 to i32
  %222 = icmp eq i32 %221, 28
  br i1 %222, label %229, label %223

223:                                              ; preds = %217
  %224 = load ptr, ptr %9, align 8, !tbaa !69
  %225 = getelementptr inbounds nuw %struct._zend_op, ptr %224, i32 0, i32 6
  %226 = load i8, ptr %225, align 4, !tbaa !58
  %227 = zext i8 %226 to i32
  %228 = icmp eq i32 %227, 27
  br i1 %228, label %229, label %260

229:                                              ; preds = %223, %217, %211, %205, %199
  %230 = load ptr, ptr %9, align 8, !tbaa !69
  %231 = getelementptr inbounds nuw %struct._zend_op, ptr %230, i32 0, i32 7
  %232 = load i8, ptr %231, align 1, !tbaa !64
  %233 = zext i8 %232 to i32
  %234 = icmp eq i32 %233, 8
  br i1 %234, label %235, label %260

235:                                              ; preds = %229
  %236 = load ptr, ptr %9, align 8, !tbaa !69
  %237 = getelementptr inbounds nuw %struct._zend_op, ptr %236, i32 0, i32 1
  %238 = load i32, ptr %237, align 8, !tbaa !61
  %239 = load i32, ptr %11, align 4, !tbaa !42
  %240 = icmp eq i32 %238, %239
  br i1 %240, label %241, label %260

241:                                              ; preds = %235
  %242 = load ptr, ptr %9, align 8, !tbaa !69
  %243 = load ptr, ptr %8, align 8, !tbaa !11
  %244 = getelementptr inbounds nuw %struct._zend_ssa, ptr %243, i32 0, i32 4
  %245 = load ptr, ptr %244, align 8, !tbaa !80
  %246 = load ptr, ptr %8, align 8, !tbaa !11
  %247 = getelementptr inbounds nuw %struct._zend_ssa, ptr %246, i32 0, i32 5
  %248 = load ptr, ptr %247, align 8, !tbaa !84
  %249 = load i32, ptr %10, align 4, !tbaa !42
  %250 = sext i32 %249 to i64
  %251 = getelementptr inbounds %struct._zend_ssa_var, ptr %248, i64 %250
  %252 = getelementptr inbounds nuw %struct._zend_ssa_var, ptr %251, i32 0, i32 2
  %253 = load i32, ptr %252, align 8, !tbaa !106
  %254 = sext i32 %253 to i64
  %255 = getelementptr inbounds %struct._zend_ssa_op, ptr %245, i64 %254
  %256 = load ptr, ptr %7, align 8, !tbaa !4
  %257 = load ptr, ptr %8, align 8, !tbaa !11
  %258 = call zeroext i1 @zend_may_throw(ptr noundef %242, ptr noundef %255, ptr noundef %256, ptr noundef %257)
  br i1 %258, label %259, label %260

259:                                              ; preds = %241
  store i1 false, ptr %6, align 1
  br label %261

260:                                              ; preds = %241, %235, %229, %223
  store i1 true, ptr %6, align 1
  br label %261

261:                                              ; preds = %260, %259, %197, %167, %133, %93, %68, %67, %53, %39, %19
  %262 = load i1, ptr %6, align 1
  ret i1 %262
}