; Function Attrs: nounwind uwtable
define internal fastcc zeroext i1 @opline_supports_assign_contraction(ptr noundef %0, ptr noundef %1, ptr noundef %2, i32 noundef range(i32 0, -2147483648) %3, i32 noundef %4) unnamed_addr #0 {
  %6 = getelementptr inbounds nuw i8, ptr %2, i64 28
  %7 = load i8, ptr %6, align 4, !tbaa !50
  switch i8 %7, label %.thread [
    i8 68, label %89
    i8 -49, label %8
    i8 -50, label %16
    i8 -51, label %24
    i8 -127, label %33
    i8 -126, label %33
    i8 60, label %33
    i8 -125, label %33
    i8 36, label %40
    i8 37, label %40
    i8 71, label %47
    i8 51, label %60
    i8 26, label %70
    i8 24, label %70
    i8 23, label %70
    i8 28, label %70
    i8 27, label %70
  ]

8:                                                ; preds = %5
  %9 = getelementptr inbounds nuw i8, ptr %2, i64 61
  %10 = load i8, ptr %9, align 1, !tbaa !59
  %11 = icmp eq i8 %10, 8
  br i1 %11, label %12, label %16

12:                                               ; preds = %8
  %13 = getelementptr inbounds nuw i8, ptr %2, i64 40
  %14 = load i32, ptr %13, align 8, !tbaa !53
  %15 = icmp eq i32 %14, %4
  br i1 %15, label %89, label %16

16:                                               ; preds = %5, %8, %12
  %17 = getelementptr inbounds nuw i8, ptr %2, i64 30
  %18 = load i8, ptr %17, align 2, !tbaa !80
  %19 = icmp eq i8 %18, 8
  br i1 %19, label %20, label %24

20:                                               ; preds = %16
  %21 = getelementptr inbounds nuw i8, ptr %2, i64 12
  %22 = load i32, ptr %21, align 4, !tbaa !53
  %23 = icmp eq i32 %22, %4
  br i1 %23, label %89, label %24

24:                                               ; preds = %5, %16, %20
  %25 = getelementptr inbounds nuw i8, ptr %2, i64 29
  %26 = load i8, ptr %25, align 1, !tbaa !59
  %27 = icmp eq i8 %26, 8
  br i1 %27, label %28, label %32

28:                                               ; preds = %24
  %29 = getelementptr inbounds nuw i8, ptr %2, i64 8
  %30 = load i32, ptr %29, align 8, !tbaa !53
  %31 = icmp eq i32 %30, %4
  br i1 %31, label %89, label %32

32:                                               ; preds = %28, %24
  br label %89

33:                                               ; preds = %5, %5, %5, %5
  %34 = getelementptr inbounds nuw i8, ptr %1, i64 72
  %35 = load ptr, ptr %34, align 8, !tbaa !85
  %36 = zext nneg i32 %3 to i64
  %37 = getelementptr inbounds nuw %struct._zend_ssa_var_info, ptr %35, i64 %36
  %38 = load i32, ptr %37, align 8, !tbaa !90
  %39 = and i32 %38, 960
  %.not58 = icmp eq i32 %39, 0
  br label %89

40:                                               ; preds = %5, %5
  %41 = getelementptr inbounds nuw i8, ptr %2, i64 29
  %42 = load i8, ptr %41, align 1, !tbaa !59
  %.not57 = icmp eq i8 %42, 8
  br i1 %.not57, label %43, label %89

43:                                               ; preds = %40
  %44 = getelementptr inbounds nuw i8, ptr %2, i64 8
  %45 = load i32, ptr %44, align 8, !tbaa !53
  %46 = icmp ne i32 %45, %4
  br label %89

47:                                               ; preds = %5
  %48 = getelementptr inbounds nuw i8, ptr %2, i64 29
  %49 = load i8, ptr %48, align 1, !tbaa !59
  %.not54 = icmp eq i8 %49, 8
  br i1 %.not54, label %50, label %53

50:                                               ; preds = %47
  %51 = getelementptr inbounds nuw i8, ptr %2, i64 8
  %52 = load i32, ptr %51, align 8, !tbaa !53
  %.not55 = icmp eq i32 %52, %4
  br i1 %.not55, label %89, label %53

53:                                               ; preds = %50, %47
  %54 = getelementptr inbounds nuw i8, ptr %2, i64 30
  %55 = load i8, ptr %54, align 2, !tbaa !80
  %.not56 = icmp eq i8 %55, 8
  br i1 %.not56, label %56, label %89

56:                                               ; preds = %53
  %57 = getelementptr inbounds nuw i8, ptr %2, i64 12
  %58 = load i32, ptr %57, align 4, !tbaa !53
  %59 = icmp ne i32 %58, %4
  br label %89

60:                                               ; preds = %5
  %61 = getelementptr inbounds nuw i8, ptr %2, i64 20
  %62 = load i32, ptr %61, align 4, !tbaa !58
  %.off = add i32 %62, -7
  %switch = icmp ult i32 %.off, 2
  br i1 %switch, label %63, label %.thread

63:                                               ; preds = %60
  %64 = getelementptr inbounds nuw i8, ptr %2, i64 29
  %65 = load i8, ptr %64, align 1, !tbaa !59
  %.not = icmp eq i8 %65, 8
  br i1 %.not, label %66, label %89

66:                                               ; preds = %63
  %67 = getelementptr inbounds nuw i8, ptr %2, i64 8
  %68 = load i32, ptr %67, align 8, !tbaa !53
  %69 = icmp ne i32 %68, %4
  br label %89

70:                                               ; preds = %5, %5, %5, %5, %5
  %71 = getelementptr inbounds nuw i8, ptr %2, i64 29
  %72 = load i8, ptr %71, align 1, !tbaa !59
  %73 = icmp eq i8 %72, 8
  br i1 %73, label %74, label %.thread

74:                                               ; preds = %70
  %75 = getelementptr inbounds nuw i8, ptr %2, i64 8
  %76 = load i32, ptr %75, align 8, !tbaa !53
  %77 = icmp eq i32 %76, %4
  br i1 %77, label %78, label %.thread

78:                                               ; preds = %74
  %79 = getelementptr inbounds nuw i8, ptr %1, i64 56
  %80 = load ptr, ptr %79, align 8, !tbaa !71
  %81 = getelementptr inbounds nuw i8, ptr %1, i64 64
  %82 = load ptr, ptr %81, align 8, !tbaa !74
  %83 = zext nneg i32 %3 to i64
  %84 = getelementptr inbounds nuw %struct._zend_ssa_var, ptr %82, i64 %83, i32 2
  %85 = load i32, ptr %84, align 8, !tbaa !88
  %86 = sext i32 %85 to i64
  %87 = getelementptr inbounds %struct._zend_ssa_op, ptr %80, i64 %86
  %88 = tail call zeroext i1 @zend_may_throw(ptr noundef nonnull %2, ptr noundef %87, ptr noundef %0, ptr noundef %1) #12
  br i1 %88, label %89, label %.thread

.thread:                                          ; preds = %5, %60, %78, %74, %70
  br label %89

89:                                               ; preds = %5, %78, %63, %66, %50, %56, %53, %40, %43, %28, %20, %12, %.thread, %33, %32
  %.0 = phi i1 [ %.not58, %33 ], [ true, %.thread ], [ true, %32 ], [ false, %5 ], [ false, %12 ], [ false, %20 ], [ false, %28 ], [ true, %40 ], [ %46, %43 ], [ false, %50 ], [ true, %53 ], [ %59, %56 ], [ true, %63 ], [ %69, %66 ], [ false, %78 ]
  ret i1 %.0
}